target datalayout = "e-m:e-p270:32:32-p271:32:32-p272:64:64-i64:64-i128:128-f80:128-n8:16:32:64-S128"
target triple = "x86_64-unknown-linux-gnu"

; Function Attrs: mustprogress uwtable
define internal noundef ptr @_ZN12_GLOBAL__N_114trimSpaceCharsEPKDsRi(ptr noundef %s, ptr noundef nonnull align 4 dereferenceable(4) %length) #1 {
entry:
  %retval = alloca ptr, align 8
  %s.addr = alloca ptr, align 8
  %length.addr = alloca ptr, align 8
  %start = alloca i32, align 4
  %limit = alloca i32, align 4
  store ptr %s, ptr %s.addr, align 8
  store ptr %length, ptr %length.addr, align 8
  %0 = load ptr, ptr %length.addr, align 8
  %1 = load i32, ptr %0, align 4
  %cmp = icmp sle i32 %1, 0
  br i1 %cmp, label %if.then, label %lor.lhs.false

lor.lhs.false:                                    ; preds = %entry
  %2 = load ptr, ptr %s.addr, align 8
  %arrayidx = getelementptr inbounds i16, ptr %2, i64 0
  %3 = load i16, ptr %arrayidx, align 2
  %conv = zext i16 %3 to i32
  %call = call signext i8 @u_isJavaSpaceChar_75(i32 noundef %conv)
  %tobool = icmp ne i8 %call, 0
  br i1 %tobool, label %if.end, label %land.lhs.true

land.lhs.true:                                    ; preds = %lor.lhs.false
  %4 = load ptr, ptr %s.addr, align 8
  %5 = load ptr, ptr %length.addr, align 8
  %6 = load i32, ptr %5, align 4
  %sub = sub nsw i32 %6, 1
  %idxprom = sext i32 %sub to i64
  %arrayidx1 = getelementptr inbounds i16, ptr %4, i64 %idxprom
  %7 = load i16, ptr %arrayidx1, align 2
  %conv2 = zext i16 %7 to i32
  %call3 = call signext i8 @u_isJavaSpaceChar_75(i32 noundef %conv2)
  %tobool4 = icmp ne i8 %call3, 0
  br i1 %tobool4, label %if.end, label %if.then

if.then:                                          ; preds = %land.lhs.true, %entry
  %8 = load ptr, ptr %s.addr, align 8
  store ptr %8, ptr %retval, align 8
  br label %return

if.end:                                           ; preds = %land.lhs.true, %lor.lhs.false
  store i32 0, ptr %start, align 4
  %9 = load ptr, ptr %length.addr, align 8
  %10 = load i32, ptr %9, align 4
  store i32 %10, ptr %limit, align 4
  br label %while.cond

while.cond:                                       ; preds = %while.body, %if.end
  %11 = load i32, ptr %start, align 4
  %12 = load i32, ptr %limit, align 4
  %cmp5 = icmp slt i32 %11, %12
  br i1 %cmp5, label %land.rhs, label %land.end

land.rhs:                                         ; preds = %while.cond
  %13 = load ptr, ptr %s.addr, align 8
  %14 = load i32, ptr %start, align 4
  %idxprom6 = sext i32 %14 to i64
  %arrayidx7 = getelementptr inbounds i16, ptr %13, i64 %idxprom6
  %15 = load i16, ptr %arrayidx7, align 2
  %conv8 = zext i16 %15 to i32
  %call9 = call signext i8 @u_isJavaSpaceChar_75(i32 noundef %conv8)
  %tobool10 = icmp ne i8 %call9, 0
  br label %land.end

land.end:                                         ; preds = %land.rhs, %while.cond
  %16 = phi i1 [ false, %while.cond ], [ %tobool10, %land.rhs ]
  br i1 %16, label %while.body, label %while.end

while.body:                                       ; preds = %land.end
  %17 = load i32, ptr %start, align 4
  %inc = add nsw i32 %17, 1
  store i32 %inc, ptr %start, align 4
  br label %while.cond, !llvm.loop !12

while.end:                                        ; preds = %land.end
  %18 = load i32, ptr %start, align 4
  %19 = load i32, ptr %limit, align 4
  %cmp11 = icmp slt i32 %18, %19
  br i1 %cmp11, label %if.then12, label %if.end22

if.then12:                                        ; preds = %while.end
  br label %while.cond13

while.cond13:                                     ; preds = %while.body20, %if.then12
  %20 = load ptr, ptr %s.addr, align 8
  %21 = load i32, ptr %limit, align 4
  %sub14 = sub nsw i32 %21, 1
  %idxprom15 = sext i32 %sub14 to i64
  %arrayidx16 = getelementptr inbounds i16, ptr %20, i64 %idxprom15
  %22 = load i16, ptr %arrayidx16, align 2
  %conv17 = zext i16 %22 to i32
  %call18 = call signext i8 @u_isJavaSpaceChar_75(i32 noundef %conv17)
  %tobool19 = icmp ne i8 %call18, 0
  br i1 %tobool19, label %while.body20, label %while.end21

while.body20:                                     ; preds = %while.cond13
  %23 = load i32, ptr %limit, align 4
  %dec = add nsw i32 %23, -1
  store i32 %dec, ptr %limit, align 4
  br label %while.cond13, !llvm.loop !13

while.end21:                                      ; preds = %while.cond13
  br label %if.end22

if.end22:                                         ; preds = %while.end21, %while.end
  %24 = load i32, ptr %limit, align 4
  %25 = load i32, ptr %start, align 4
  %sub23 = sub nsw i32 %24, %25
  %26 = load ptr, ptr %length.addr, align 8
  store i32 %sub23, ptr %26, align 4
  %27 = load ptr, ptr %s.addr, align 8
  %28 = load i32, ptr %start, align 4
  %idx.ext = sext i32 %28 to i64
  %add.ptr = getelementptr inbounds i16, ptr %27, i64 %idx.ext
  store ptr %add.ptr, ptr %retval, align 8
  br label %return

return:                                           ; preds = %if.end22, %if.then
  %29 = load ptr, ptr %retval, align 8
  ret ptr %29
}