; Function Attrs: mustprogress uwtable
define internal fastcc noundef ptr @_ZN12_GLOBAL__N_114trimSpaceCharsEPKDsRi(ptr noundef readonly %s, ptr nocapture noundef nonnull align 4 dereferenceable(4) %length) unnamed_addr #1 {
entry:
  %0 = load i32, ptr %length, align 4
  %cmp = icmp slt i32 %0, 1
  br i1 %cmp, label %return, label %lor.lhs.false

lor.lhs.false:                                    ; preds = %entry
  %1 = load i16, ptr %s, align 2
  %conv = zext i16 %1 to i32
  %call = tail call signext i8 @u_isJavaSpaceChar_75(i32 noundef %conv)
  %tobool.not = icmp eq i8 %call, 0
  br i1 %tobool.not, label %land.lhs.true, label %if.end

land.lhs.true:                                    ; preds = %lor.lhs.false
  %2 = load i32, ptr %length, align 4
  %3 = sext i32 %2 to i64
  %4 = getelementptr i16, ptr %s, i64 %3
  %arrayidx1 = getelementptr i8, ptr %4, i64 -2
  %5 = load i16, ptr %arrayidx1, align 2
  %conv2 = zext i16 %5 to i32
  %call3 = tail call signext i8 @u_isJavaSpaceChar_75(i32 noundef %conv2)
  %tobool4.not = icmp eq i8 %call3, 0
  br i1 %tobool4.not, label %return, label %if.end

if.end:                                           ; preds = %land.lhs.true, %lor.lhs.false
  %6 = load i32, ptr %length, align 4
  %cmp521 = icmp sgt i32 %6, 0
  br i1 %cmp521, label %land.rhs.preheader, label %if.end22

land.rhs.preheader:                               ; preds = %if.end
  %wide.trip.count = zext nneg i32 %6 to i64
  br label %land.rhs

land.rhs:                                         ; preds = %land.rhs.preheader, %while.body
  %indvars.iv = phi i64 [ 0, %land.rhs.preheader ], [ %indvars.iv.next, %while.body ]
  %arrayidx7 = getelementptr inbounds i16, ptr %s, i64 %indvars.iv
  %7 = load i16, ptr %arrayidx7, align 2
  %conv8 = zext i16 %7 to i32
  %call9 = tail call signext i8 @u_isJavaSpaceChar_75(i32 noundef %conv8)
  %tobool10.not = icmp eq i8 %call9, 0
  br i1 %tobool10.not, label %while.cond13.preheader, label %while.body

while.cond13.preheader:                           ; preds = %land.rhs
  %invariant.gep = getelementptr i8, ptr %s, i64 -2
  %8 = zext nneg i32 %6 to i64
  br label %while.cond13

while.body:                                       ; preds = %land.rhs
  %indvars.iv.next = add nuw nsw i64 %indvars.iv, 1
  %exitcond.not = icmp eq i64 %indvars.iv.next, %wide.trip.count
  br i1 %exitcond.not, label %if.end22, label %land.rhs, !llvm.loop !45

while.cond13:                                     ; preds = %while.cond13, %while.cond13.preheader
  %indvars.iv26 = phi i64 [ %indvars.iv.next27, %while.cond13 ], [ %8, %while.cond13.preheader ]
  %gep = getelementptr i16, ptr %invariant.gep, i64 %indvars.iv26
  %9 = load i16, ptr %gep, align 2
  %conv17 = zext i16 %9 to i32
  %call18 = tail call signext i8 @u_isJavaSpaceChar_75(i32 noundef %conv17)
  %tobool19.not = icmp eq i8 %call18, 0
  %indvars.iv.next27 = add nsw i64 %indvars.iv26, -1
  br i1 %tobool19.not, label %if.end22.loopexit, label %while.cond13, !llvm.loop !46

if.end22.loopexit:                                ; preds = %while.cond13
  %10 = trunc i64 %indvars.iv to i32
  %11 = trunc i64 %indvars.iv26 to i32
  br label %if.end22

if.end22:                                         ; preds = %while.body, %if.end22.loopexit, %if.end
  %start.020 = phi i32 [ 0, %if.end ], [ %10, %if.end22.loopexit ], [ %6, %while.body ]
  %limit.1 = phi i32 [ %6, %if.end ], [ %11, %if.end22.loopexit ], [ %6, %while.body ]
  %sub23 = sub nsw i32 %limit.1, %start.020
  store i32 %sub23, ptr %length, align 4
  %idx.ext = zext nneg i32 %start.020 to i64
  %add.ptr = getelementptr inbounds i16, ptr %s, i64 %idx.ext
  br label %return

return:                                           ; preds = %entry, %land.lhs.true, %if.end22
  %retval.0 = phi ptr [ %add.ptr, %if.end22 ], [ %s, %land.lhs.true ], [ %s, %entry ]
  ret ptr %retval.0
}